; Function Attrs: mustprogress uwtable
define void @_ZN5faiss18IndexIVFPQFastScan16precompute_tableEv(ptr noundef nonnull align 8 dereferenceable(568) %0) local_unnamed_addr #2 align 2 {
  %2 = getelementptr inbounds i8, ptr %0, i64 536
  %3 = getelementptr inbounds i8, ptr %0, i64 48
  %4 = load ptr, ptr %3, align 8
  %5 = getelementptr inbounds i8, ptr %0, i64 328
  %6 = getelementptr inbounds i8, ptr %0, i64 544
  %7 = getelementptr inbounds i8, ptr %0, i64 256
  %8 = load i8, ptr %7, align 8
  %9 = and i8 %8, 1
  %10 = icmp ne i8 %9, 0
  %11 = getelementptr inbounds i8, ptr %0, i64 24
  %12 = load i8, ptr %11, align 8
  %13 = and i8 %12, 1
  %14 = icmp ne i8 %13, 0
  tail call void @_ZN5faiss34initialize_IVFPQ_precomputed_tableERiPKNS_5IndexERKNS_16ProductQuantizerERNS_12AlignedTableIfLi32EEEbb(ptr noundef nonnull align 4 dereferenceable(4) %2, ptr noundef %4, ptr noundef nonnull align 8 dereferenceable(208) %5, ptr noundef nonnull align 8 dereferenceable(24) %6, i1 noundef zeroext %10, i1 noundef zeroext %14)
  ret void
}